; Function Attrs: mustprogress nounwind willreturn uwtable
define void @Ssw_ClassesStop(ptr noundef captures(none) %0) local_unnamed_addr #6 {
  %2 = getelementptr inbounds nuw i8, ptr %0, i64 64
  %3 = load ptr, ptr %2, align 8, !tbaa !31
  %.not = icmp eq ptr %3, null
  br i1 %.not, label %8, label %4

4:                                                ; preds = %1
  %5 = getelementptr inbounds nuw i8, ptr %3, i64 8
  %6 = load ptr, ptr %5, align 8, !tbaa !29
  %.not.i = icmp eq ptr %6, null
  br i1 %.not.i, label %Vec_PtrFree.exit, label %7

7:                                                ; preds = %4
  tail call void @free(ptr noundef nonnull %6) #23
  br label %Vec_PtrFree.exit

Vec_PtrFree.exit:                                 ; preds = %4, %7
  tail call void @free(ptr noundef nonnull %3) #23
  br label %8

8:                                                ; preds = %Vec_PtrFree.exit, %1
  %9 = getelementptr inbounds nuw i8, ptr %0, i64 56
  %10 = load ptr, ptr %9, align 8, !tbaa !30
  %.not21 = icmp eq ptr %10, null
  br i1 %.not21, label %15, label %11

11:                                               ; preds = %8
  %12 = getelementptr inbounds nuw i8, ptr %10, i64 8
  %13 = load ptr, ptr %12, align 8, !tbaa !29
  %.not.i26 = icmp eq ptr %13, null
  br i1 %.not.i26, label %Vec_PtrFree.exit27, label %14

14:                                               ; preds = %11
  tail call void @free(ptr noundef nonnull %13) #23
  br label %Vec_PtrFree.exit27

Vec_PtrFree.exit27:                               ; preds = %11, %14
  tail call void @free(ptr noundef nonnull %10) #23
  br label %15

15:                                               ; preds = %Vec_PtrFree.exit27, %8
  %16 = getelementptr inbounds nuw i8, ptr %0, i64 72
  %17 = load ptr, ptr %16, align 8, !tbaa !32
  %18 = getelementptr inbounds nuw i8, ptr %17, i64 8
  %19 = load ptr, ptr %18, align 8, !tbaa !29
  %.not.i28 = icmp eq ptr %19, null
  br i1 %.not.i28, label %Vec_PtrFree.exit29, label %20

20:                                               ; preds = %15
  tail call void @free(ptr noundef nonnull %19) #23
  br label %Vec_PtrFree.exit29

Vec_PtrFree.exit29:                               ; preds = %15, %20
  tail call void @free(ptr noundef nonnull %17) #23
  %21 = getelementptr inbounds nuw i8, ptr %0, i64 8
  %22 = load ptr, ptr %21, align 8, !tbaa !26
  %.not22 = icmp eq ptr %22, null
  br i1 %.not22, label %24, label %23

23:                                               ; preds = %Vec_PtrFree.exit29
  tail call void @free(ptr noundef nonnull %22) #23
  store ptr null, ptr %21, align 8, !tbaa !26
  br label %24

24:                                               ; preds = %Vec_PtrFree.exit29, %23
  %25 = getelementptr inbounds nuw i8, ptr %0, i64 16
  %26 = load ptr, ptr %25, align 8, !tbaa !27
  %.not23 = icmp eq ptr %26, null
  br i1 %.not23, label %28, label %27

27:                                               ; preds = %24
  tail call void @free(ptr noundef nonnull %26) #23
  store ptr null, ptr %25, align 8, !tbaa !27
  br label %28

28:                                               ; preds = %24, %27
  %29 = getelementptr inbounds nuw i8, ptr %0, i64 40
  %30 = load ptr, ptr %29, align 8, !tbaa !38
  %.not24 = icmp eq ptr %30, null
  br i1 %.not24, label %32, label %31

31:                                               ; preds = %28
  tail call void @free(ptr noundef nonnull %30) #23
  br label %32

32:                                               ; preds = %28, %31
  tail call void @free(ptr noundef nonnull %0) #23
  ret void
}